(lp0
(lp1
F24.977781
aF121.555088
aF221.17
aI5
aI2
aI2
aa(lp2
F25.068949
aF121.5154863
aF172.22
aI4
aI2
aI2
aa(lp3
F25.057191
aF121.527028
aF33.55
aI1
aI1
aI1
aa(lp4
F25.071675
aF121.6087405
aF131.2
aI2
aI2
aI1
aa(lp5
F25.0557794
aF121.5824762
aF250.10999999999999
aI3
aI2
aI2
aa(lp6
F25.0711653
aF121.620015
aF78.61
aI2
aI2
aI1
aa(lp7
F25.0878265
aF121.6014229
aF102.76
aI3
aI2
aI1
aa(lp8
F25.0838795
aF121.5950595
aF84.46
aI3
aI2
aI1
aa(lp9
F25.077995
aF121.595706
aF90.17
aI3
aI2
aI1
aa(lp10
F25.058163
aF121.5355631
aF385.19
aI0
aI0
aI0
aa(lp11
F25.06029
aF121.5265488
aF37.86
aI1
aI1
aI1
aa(lp12
F25.078256
aF121.595349
aF127.61
aI3
aI2
aI2
aa(lp13
F25.064854
aF121.5729667
aF47.31
aI1
aI1
aI1
aa(lp14
F25.0615305
aF121.5391242
aF118.92
aI3
aI2
aI2
aa(lp15
F25.0837753
aF121.5959676
aF90.89
aI0
aI0
aI0
aa(lp16
F25.017843
aF121.571543
aF98.54
aI4
aI1
aI1
aa(lp17
F25.0509046
aF121.5610269
aF114.44999999999999
aI3
aI2
aI2
aa(lp18
F25.0629169
aF121.5451399
aF105.78999999999999
aI3
aI2
aI1
aa(lp19
F25.0475222
aF121.5432525
aF32.83
aI1
aI1
aI1
aa(lp20
F25.0555655
aF121.6070215
aF169.51
aI3
aI2
aI2
aa(lp21
F25.0588203
aF121.5595615
aF19.92
aI3
aI2
aI2
aa(lp22
F25.0286362
aF121.5570694
aF115.45
aI1
aI1
aI1
aa(lp23
F25.0286362
aF121.5570694
aF108.12
aI1
aI1
aI1
aa(lp24
F25.0491976
aF121.5748137
aF352.82
aI4
aI2
aI3
aa(lp25
F25.0528006
aF121.544604
aF243.49
aI3
aI2
aI2
aa(lp26
F25.137376
aF121.515444
aF72.03
aI1
aI1
aI1
aa(lp27
F25.1390481
aF121.4853402
aF97.28999999999999
aI2
aI2
aI1
aa(lp28
F25.144649
aF121.501335
aF251.88
aI4
aI3
aI3
aa(lp29
F25.0358037
aF121.548064
aF110.9
aI3
aI2
aI2
aa(lp30
F25.0246378
aF121.5262757
aF70.07
aI4
aI1
aI1
aa(lp31
F25.0322761
aF121.5491635
aF71.93
aI0
aI0
aI0
aa(lp32
F25.0265189
aF121.552565
aF61.2
aI0
aI1
aI1
aa(lp33
F25.0310002
aF121.5550245
aF54.55
aI3
aI0
aI3
aa(lp34
F24.9925279
aF121.559716
aF100.56
aI4
aI2
aI2
aa(lp35
F25.0736205
aF121.6029568
aF40.84
aI1
aI1
aI1
aa(lp36
F25.0880075
aF121.5864362
aF64.49000000000001
aI2
aI2
aI1
aa(lp37
F25.0472337
aF121.5364146
aF106.22
aI3
aI1
aI2
aa(lp38
F25.0866384
aF121.5639517
aF133.48999999999998
aI3
aI2
aI2
aa(lp39
F25.0584445
aF121.5408121
aF136.35
aI4
aI2
aI2
aa(lp40
F25.0537869
aF121.5801388
aF124.47999999999999
aI3
aI2
aI2
aa(lp41
F25.0420612
aF121.5874055
aF56.92
aI1
aI2
aI1
aa(lp42
F25.0343188
aF121.554317
aF107.18
aI3
aI2
aI1
aa(lp43
F25.0335859
aF121.5447619
aF161.41
aI2
aI2
aI2
aa(lp44
F25.034965
aF121.525835
aF40.81
aI1
aI1
aI1
aa(lp45
F25.1389482
aF121.5060703
aF217.26
aI3
aI2
aI3
aa(lp46
F25.0913837
aF121.500605
aF56.18000000000001
aI1
aI1
aI1
aa(lp47
F25.04049
aF121.556071
aF62.540000000000006
aI2
aI1
aI1
aa(lp48
F25.0970249
aF121.5273505
aF201.86
aI2
aI1
aI1
aa(lp49
F25.02269
aF121.563823
aF100.71
aI2
aI2
aI1
aa(lp50
F25.0832278
aF121.5946302
aF88.12
aI2
aI2
aI1
aa(lp51
F25.0486369
aF121.5302099
aF36.04
aI1
aI1
aI1
aa(lp52
F25.0816616
aF121.5967383
aF92.31
aI2
aI2
aI1
aa(lp53
F25.053117
aF121.507558
aF87.84
aI3
aI2
aI2
aa(lp54
F24.9879701
aF121.5513789
aF86.19
aI3
aI2
aI3
aa(lp55
F25.0252948
aF121.5419564
aF69.62
aI0
aI1
aI1
aa(lp56
F24.9738811
aF121.5194194
aF122.25
aI3
aI2
aI2
aa(lp57
F25.1269699
aF121.5054338
aF310.5
aI4
aI2
aI2
aa(lp58
F25.1269699
aF121.5054338
aF302.65
aI4
aI2
aI2
aa(lp59
F25.1269699
aF121.5054338
aF261.68
aI4
aI2
aI2
aa(lp60
F25.110078
aF121.537713
aF121.89
aI3
aI2
aI2
aa(lp61
F25.1079715
aF121.5287713
aF26.2
aI3
aI2
aI1
aa(lp62
F25.0915287
aF121.5248953
aF52.37
aI4
aI2
aI1
aa(lp63
F25.1183583
aF121.5309663
aF80.91
aI2
aI2
aI1
aa(lp64
F25.137175
aF121.512776
aF118.57
aI1
aI1
aI1
aa(lp65
F25.1105894
aF121.534074
aF53.09
aI1
aI2
aI1
aa(lp66
F25.138173
aF121.486934
aF47.53
aI1
aI1
aI1
aa(lp67
F25.135391
aF121.497929
aF141.05
aI3
aI2
aI2
aa(lp68
F25.060119
aF121.611055
aF281.78
aI3
aI2
aI2
aa(lp69
F25.060119
aF121.611055
aF519.76
aI4
aI3
aI3
aa(lp70
F25.0448644
aF121.5709725
aF39.78
aI4
aI2
aI2
aa(lp71
F25.04251
aF121.578983
aF90.99
aI3
aI2
aI2
aa(lp72
F25.048934
aF121.5807245
aF69.83
aI2
aI1
aI1
aa(lp73
F25.0555655
aF121.6070215
aF78.25
aI2
aI1
aI1
aa(lp74
F25.017653
aF121.572835
aF80.92
aI2
aI1
aI1
aa(lp75
F25.0558611
aF121.5604624
aF241.32999999999998
aI3
aI2
aI2
aa(lp76
F25.048062
aF121.561127
aF96.96
aI3
aI1
aI1
aa(lp77
F25.04601
aF121.589223
aF98.67
aI3
aI2
aI2
aa(lp78
F25.048062
aF121.561127
aF96.96
aI3
aI1
aI1
aa(lp79
F25.0502007
aF121.526122
aF45.14
aI1
aI1
aI1
aa(lp80
F25.0654106
aF121.5272432
aF37.79
aI0
aI1
aI1
aa(lp81
F25.0819946
aF121.5925231
aF323.88
aI4
aI2
aI2
aa(lp82
F25.063083
aF121.5444532
aF204.32
aI3
aI2
aI2
aa(lp83
F25.085886
aF121.603567
aF65.46000000000001
aI1
aI1
aI1
aa(lp84
F25.0682917
aF121.6160528
aF78.66
aI2
aI2
aI2
aa(lp85
F25.0611317
aF121.5257123
aF76.25
aI3
aI1
aI1
aa(lp86
F25.0828556
aF121.5679069
aF94.4
aI3
aI2
aI1
aa(lp87
F25.0562651
aF121.575842
aF127.78999999999999
aI3
aI2
aI2
aa(lp88
F25.050808
aF121.5273074
aF34.95
aI1
aI1
aI1
aa(lp89
F25.0884881
aF121.5928156
aF94.86
aI3
aI2
aI2
aa(lp90
F25.0547461
aF121.5308377
aF59.88
aI1
aI1
aI1
aa(lp91
F25.0246093
aF121.4993561
aF69.11
aI3
aI1
aI1
aa(lp92
F25.020418
aF121.526325
aF35.03
aI2
aI1
aI1
aa(lp93
F25.0003347
aF121.5380022
aF114.38
aI3
aI1
aI1
aa(lp94
F24.984292
aF121.566484
aF89.53
aI3
aI2
aI2
aa(lp95
F24.9871959
aF121.568693
aF243.12
aI4
aI2
aI2
aa(lp96
F24.9947629
aF121.561444
aF92.4
aI3
aI2
aI2
aa(lp97
F24.984823
aF121.565925
aF152.3
aI3
aI2
aI2
aa(lp98
F24.9863963
aF121.5851686
aF141.42
aI3
aI2
aI2
aa(lp99
F24.9863963
aF121.5851686
aF158.54000000000002
aI3
aI2
aI2
aa(lp100
F25.0019768
aF121.5533566
aF60.23
aI1
aI1
aI1
aa(lp101
F25.0064501
aF121.5511923
aF83.09
aI3
aI2
aI1
aa(lp102
F24.9840112
aF121.5884123
aF44.9
aI1
aI1
aI1
aa(lp103
F25.004032
aF121.5404291
aF72.73
aI3
aI1
aI1
aa(lp104
F24.987622
aF121.570813
aF51.33
aI1
aI1
aI1
aa(lp105
F25.0182354
aF121.5242706
aF152.23000000000002
aI3
aI2
aI2
aa(lp106
F24.9972786
aF121.548202
aF116.05
aI3
aI2
aI1
aa(lp107
F25.0245536
aF121.5131187
aF126.18
aI3
aI2
aI2
aa(lp108
F24.9841366
aF121.5622255
aF80.83
aI2
aI2
aI1
aa(lp109
F25.0376288
aF121.4959278
aF74.78
aI2
aI1
aI2
aa(lp110
F25.0725279
aF121.5112756
aF78.59
aI0
aI0
aI0
aa(lp111
F25.0750085
aF121.5850234
aF100.50999999999999
aI3
aI2
aI1
aa(lp112
F25.063083
aF121.5444532
aF116.42
aI2
aI1
aI1
aa(lp113
F25.054835
aF121.5392812
aF65.64
aI1
aI1
aI1
aa(lp114
F25.085886
aF121.603567
aF278.76
aI2
aI2
aI2
aa(lp115
F25.061014
aF121.527974
aF514.25
aI0
aI0
aI0
aa(lp116
F25.0595171
aF121.5838351
aF267.89
aI3
aI2
aI2
aa(lp117
F25.0595171
aF121.5838351
aF310.95000000000005
aI3
aI2
aI2
aa(lp118
F25.058932
aF121.552152
aF100.49
aI4
aI2
aI2
aa(lp119
F25.056187
aF121.6167819
aF243.98
aI4
aI2
aI2
aa(lp120
F25.047847
aF121.553928
aF26.93
aI0
aI0
aI0
aa(lp121
F25.0591049
aF121.5656767
aF81.17
aI3
aI1
aI1
aa(lp122
F25.0313522
aF121.5575195
aF42.989999999999995
aI1
aI1
aI1
aa(lp123
F25.0401855
aF121.585448
aF88.9
aI3
aI2
aI1
aa(lp124
F25.0186383
aF121.571282
aF150.08
aI4
aI2
aI2
aa(lp125
F25.0487179
aF121.5534291
aF50.59
aI3
aI2
aI2
aa(lp126
F25.0400079
aF121.575822
aF127.22
aI4
aI2
aI2
aa(lp127
F25.113269
aF121.525185
aF114.27
aI4
aI2
aI2
aa(lp128
F25.141902
aF121.500476
aF121.17
aI4
aI2
aI1
aa(lp129
F25.1053112
aF121.4860168
aF73.88
aI3
aI1
aI1
aa(lp130
F25.1059641
aF121.5235138
aF114.92
aI3
aI2
aI2
aa(lp131
F25.1285336
aF121.5289329
aF157.64000000000001
aI3
aI2
aI1
aa(lp132
F25.0836058
aF121.5193301
aF104.01
aI3
aI2
aI2
aa(lp133
F25.1076004
aF121.5277207
aF256.89
aI3
aI2
aI2
aa(lp134
F25.0398942
aF121.5481445
aF192.48
aI4
aI2
aI3
aa(lp135
F25.02436
aF121.531209
aF143.55
aI3
aI2
aI2
aa(lp136
F25.0474071
aF121.5442138
aF41.269999999999996
aI1
aI1
aI1
aa(lp137
F25.0021429
aF121.5517411
aF42.94
aI1
aI1
aI1
aa(lp138
F24.999553
aF121.554172
aF109.05
aI3
aI2
aI1
aa(lp139
F24.999488
aF121.575286
aF157.43
aI5
aI2
aI2
aa(lp140
F25.0298167
aF121.5153297
aF129.45000000000002
aI3
aI2
aI2
aa(lp141
F25.0394561
aF121.5042602
aF265.31
aI4
aI2
aI3
aa(lp142
F25.0489482
aF121.5324976
aF72.0
aI0
aI0
aI0
aa(lp143
F25.0788681
aF121.5904209
aF94.44999999999999
aI3
aI2
aI1
aa(lp144
F25.0498743
aF121.5246941
aF183.04000000000002
aI3
aI2
aI2
aa(lp145
F25.055677
aF121.557359
aF146.11
aI4
aI2
aI2
aa(lp146
F25.043691
aF121.5666729
aF91.91
aI3
aI2
aI2
aa(lp147
F25.041152
aF121.579504
aF136.67000000000002
aI3
aI2
aI2
aa(lp148
F25.0497084
aF121.5662242
aF60.31
aI2
aI1
aI1
aa(lp149
F25.0837339
aF121.5726787
aF193.32
aI4
aI2
aI2
aa(lp150
F25.0802614
aF121.5911181
aF86.23
aI3
aI2
aI1
aa(lp151
F25.053406
aF121.5779749
aF104.53
aI2
aI2
aI1
aa(lp152
F25.0011533
aF121.5525463
aF86.94
aI2
aI2
aI1
aa(lp153
F24.988858
aF121.567786
aF251.70999999999998
aI5
aI2
aI2
aa(lp154
F25.13282
aF121.473815
aF102.62
aI2
aI1
aI1
aa(lp155
F25.1075163
aF121.5176127
aF227.81
aI3
aI2
aI2
aa(lp156
F25.1061842
aF121.5163622
aF198.83
aI3
aI2
aI2
aa(lp157
F25.129501
aF121.529914
aF143.73
aI3
aI2
aI2
aa(lp158
F25.1253233
aF121.5282582
aF323.73
aI4
aI2
aI3
aa(lp159
F25.1031473
aF121.5220523
aF88.2
aI4
aI1
aI1
aa(lp160
F25.0544084
aF121.5602923
aF52.75
aI3
aI1
aI1
aa(lp161
F25.0236277
aF121.5720751
aF89.47
aI2
aI2
aI2
aa(lp162
F25.0560908
aF121.61759
aF113.75
aI2
aI1
aI1
aa(lp163
F25.0364619
aF121.580683
aF69.61
aI2
aI1
aI1
aa(lp164
F25.029205
aF121.564356
aF84.2
aI2
aI2
aI1
aa(lp165
F25.0257651
aF121.6240281
aF58.33
aI1
aI1
aI1
aa(lp166
F25.0345056
aF121.559117
aF106.76
aI3
aI2
aI1
aa(lp167
F25.0579715
aF121.5632423
aF149.97
aI3
aI2
aI2
aa(lp168
F25.0390598
aF121.5842783
aF73.36
aI3
aI0
aI3
aa(lp169
F25.0595171
aF121.5838351
aF363.22
aI3
aI2
aI3
aa(lp170
F25.0595171
aF121.5838351
aF361.53
aI3
aI2
aI3
aa(lp171
F25.0595171
aF121.5838351
aF311.22
aI3
aI2
aI2
aa(lp172
F25.0595171
aF121.5838351
aF309.43
aI3
aI2
aI2
aa(lp173
F25.078172
aF121.548549
aF294.08
aI3
aI2
aI2
aa(lp174
F25.0808809
aF121.5486609
aF281.02
aI4
aI2
aI2
aa(lp175
F25.0841072
aF121.5715918
aF259.46000000000004
aI4
aI2
aI2
aa(lp176
F25.0472733
aF121.5310045
aF28.87
aI1
aI1
aI1
aa(lp177
F25.0649908
aF121.5244228
aF69.92
aI1
aI1
aI1
aa(lp178
F25.06029
aF121.5265488
aF31.01
aI1
aI0
aI1
aa(lp179
F25.0651414
aF121.5350229
aF169.11
aI4
aI2
aI2
aa(lp180
F25.0703309
aF121.614433
aF61.97
aI3
aI2
aI2
aa(lp181
F25.0868286
aF121.5894898
aF114.42
aI3
aI2
aI2
aa(lp182
F25.0608059
aF121.508606
aF229.42000000000002
aI3
aI2
aI2
aa(lp183
F25.0680869
aF121.5176441
aF102.22999999999999
aI2
aI2
aI1
aa(lp184
F25.0672991
aF121.5143119
aF57.239999999999995
aI2
aI1
aI1
aa(lp185
F25.0408046
aF121.5060566
aF59.32
aI2
aI1
aI1
aa(lp186
F25.0233646
aF121.4945361
aF244.35
aI3
aI2
aI2
aa(lp187
F24.9927645
aF121.5444329
aF104.66
aI2
aI2
aI2
aa(lp188
F24.9955079
aF121.562256
aF82.75999999999999
aI3
aI2
aI2
aa(lp189
F25.0276226
aF121.5164667
aF112.16
aI4
aI2
aI3
aa(lp190
F24.9984324
aF121.5535335
aF78.99
aI3
aI2
aI1
aa(lp191
F24.998613
aF121.5376602
aF90.26
aI3
aI2
aI2
aa(lp192
F24.998103
aF121.5489091
aF118.61
aI3
aI2
aI2
aa(lp193
F24.9993571
aF121.5463699
aF74.58
aI3
aI2
aI1
aa(lp194
F25.0336296
aF121.5583493
aF185.24
aI3
aI2
aI2
aa(lp195
F25.0030141
aF121.5509899
aF163.82999999999998
aI3
aI2
aI2
aa(lp196
F24.9818695
aF121.5621863
aF255.72
aI4
aI3
aI4
aa(lp197
F24.989854
aF121.537278
aF80.62
aI3
aI2
aI1
aa(lp198
F25.0002398
aF121.556338
aF129.99
aI2
aI1
aI1
aa(lp199
F24.9988282
aF121.5451374
aF131.87
aI3
aI2
aI3
aa(lp200
F24.9989277
aF121.5582375
aF30.39
aI1
aI1
aI1
aa(lp201
F25.0294112
aF121.4946793
aF42.07
aI2
aI2
aI2
aa(lp202
F25.0446695
aF121.5052992
aF49.53
aI1
aI1
aI1
aa(lp203
F25.0630764
aF121.5188695
aF185.4
aI3
aI2
aI1
aa(lp204
F25.049411
aF121.527082
aF31.77
aI1
aI1
aI1
aa(lp205
F25.0688037
aF121.6147567
aF163.68
aI2
aI2
aI2
aa(lp206
F25.0805676
aF121.5966782
aF64.07
aI2
aI2
aI1
aa(lp207
F25.0736205
aF121.6029568
aF101.85000000000001
aI2
aI1
aI1
aa(lp208
F25.064906
aF121.5256832
aF145.47
aI2
aI1
aI1
aa(lp209
F25.067697
aF121.5287582
aF86.78
aI3
aI2
aI2
aa(lp210
F25.0796298
aF121.5952664
aF120.73
aI3
aI2
aI2
aa(lp211
F25.077132
aF121.613839
aF131.60999999999999
aI2
aI2
aI2
aa(lp212
F25.0482494
aF121.5593222
aF90.6
aI2
aI1
aI1
aa(lp213
F25.029118
aF121.561774
aF90.43
aI3
aI2
aI1
aa(lp214
F25.0417352
aF121.5657892
aF50.09
aI2
aI1
aI1
aa(lp215
F25.027067
aF121.565898
aF84.74
aI3
aI2
aI1
aa(lp216
F25.0286362
aF121.5570694
aF115.06
aI1
aI1
aI1
aa(lp217
F25.0286362
aF121.5570694
aF97.32
aI1
aI1
aI1
aa(lp218
F25.0570803
aF121.5571204
aF196.39
aI2
aI1
aI2
aa(lp219
F25.0629169
aF121.5451399
aF84.77000000000001
aI2
aI2
aI1
aa(lp220
F25.1478868
aF121.4956675
aF97.76
aI4
aI1
aI2
aa(lp221
F25.1089137
aF121.5173127
aF102.33
aI3
aI1
aI2
aa(lp222
F25.111046
aF121.5275346
aF99.45
aI3
aI2
aI2
aa(lp223
F25.1329088
aF121.4998857
aF162.16
aI2
aI2
aI2
aa(lp224
F25.0859265
aF121.5078508
aF162.74
aI4
aI2
aI2
aa(lp225
F25.032618
aF121.545546
aF88.19
aI0
aI1
aI1
aa(lp226
F25.0215885
aF121.5512189
aF277.86
aI0
aI0
aI0
aa(lp227
F25.028923
aF121.529913
aF145.71
aI4
aI2
aI2
aa(lp228
F25.0251276
aF121.5396495
aF81.3
aI2
aI1
aI1
aa(lp229
F24.9833146
aF121.5801431
aF45.25
aI1
aI1
aI1
aa(lp230
F25.0673135
aF121.514915
aF18.36
aI2
aI1
aI1
aa(lp231
F25.0555232
aF121.5118043
aF46.08
aI0
aI1
aI1
aa(lp232
F24.9996447
aF121.5738475
aF265.64
aI5
aI2
aI3
aa(lp233
F25.0391668
aF121.5020022
aF60.49
aI3
aI2
aI2
aa(lp234
F25.0353066
aF121.5004025
aF66.86
aI2
aI1
aI1
aa(lp235
F25.0614789
aF121.5479335
aF70.99
aI2
aI1
aI1
aa(lp236
F25.0467928
aF121.5460282
aF52.14
aI2
aI1
aI1
aa(lp237
F25.0795863
aF121.5102618
aF98.75999999999999
aI3
aI2
aI1
aa(lp238
F25.0812539
aF121.512657
aF73.75
aI0
aI0
aI0
aa(lp239
F25.0812539
aF121.512657
aF78.91000000000001
aI0
aI0
aI0
aa(lp240
F25.1183908
aF121.5089842
aF94.8
aI3
aI2
aI1
aa(lp241
F25.0463658
aF121.616151
aF87.82
aI3
aI2
aI2
aa(lp242
F25.0622965
aF121.520986
aF47.83
aI3
aI1
aI1
aa(lp243
F25.0685769
aF121.6098092
aF42.629999999999995
aI1
aI1
aI1
aa(lp244
F25.0663803
aF121.616307
aF35.72
aI0
aI1
aI1
aa(lp245
F25.0388435
aF121.5316599
aF124.63
aI3
aI1
aI2
aa(lp246
F25.0217849
aF121.53927
aF44.2
aI2
aI1
aI1
aa(lp247
F25.029557
aF121.548219
aF41.019999999999996
aI1
aI1
aI1
aa(lp248
F25.0346139
aF121.544002
aF151.29999999999998
aI4
aI2
aI2
aa(lp249
F25.1271499
aF121.533685
aF290.46000000000004
aI4
aI2
aI2
aa(lp250
F25.0395997
aF121.553054
aF66.59
aI2
aI1
aI1
aa(lp251
F25.1009478
aF121.5275294
aF78.23
aI2
aI1
aI1
aa(lp252
F25.1203179
aF121.52905
aF203.73
aI0
aI0
aI0
aa(lp253
F25.1203179
aF121.52905
aF203.73999999999998
aI0
aI0
aI0
aa(lp254
F25.1203179
aF121.52905
aF203.73
aI0
aI0
aI0
aa(lp255
F25.1269699
aF121.5054338
aF369.75
aI4
aI2
aI2
aa(lp256
F25.1269699
aF121.5054338
aF301.63
aI4
aI2
aI2
aa(lp257
F25.1269699
aF121.5054338
aF333.22
aI4
aI2
aI2
aa(lp258
F25.1269699
aF121.5054338
aF374.39
aI4
aI2
aI2
aa(lp259
F25.133867
aF121.502513
aF40.05
aI0
aI0
aI0
aa(lp260
F25.1240896
aF121.5258133
aF95.78
aI3
aI2
aI2
aa(lp261
F25.118607
aF121.468452
aF53.940000000000005
aI3
aI1
aI1
aa(lp262
F25.1390481
aF121.4853402
aF262.20000000000005
aI3
aI2
aI2
aa(lp263
F25.130175
aF121.502015
aF71.58
aI2
aI1
aI1
aa(lp264
F25.0913837
aF121.500605
aF56.18000000000001
aI1
aI1
aI1
aa(lp265
F25.0500967
aF121.5749216
aF38.3
aI1
aI1
aI1
aa(lp266
F25.1187223
aF121.5064067
aF63.46
aI2
aI2
aI1
aa(lp267
F25.1197303
aF121.5061312
aF98.91999999999999
aI3
aI2
aI2
aa(lp268
F25.090872
aF121.518555
aF66.5
aI3
aI1
aI1
aa(lp269
F25.11037
aF121.510769
aF87.37
aI2
aI2
aI1
aa(lp270
F25.0313522
aF121.5575195
aF127.88
aI3
aI2
aI2
aa(lp271
F25.0239776
aF121.5686935
aF127.83999999999999
aI3
aI2
aI2
aa(lp272
F25.0450524
aF121.5674263
aF179.6
aI3
aI2
aI2
aa(lp273
F25.0590469
aF121.5465492
aF108.82
aI3
aI2
aI2
aa(lp274
F25.0546226
aF121.5422017
aF190.5
aI2
aI2
aI2
aa(lp275
F25.0712658
aF121.6061279
aF237.54999999999998
aI4
aI2
aI2
aa(lp276
F25.0595171
aF121.5838351
aF267.89
aI3
aI2
aI2
aa(lp277
F25.0595171
aF121.5838351
aF266.1
aI3
aI2
aI2
aa(lp278
F25.0595171
aF121.5838351
aF280.03
aI3
aI2
aI3
aa(lp279
F25.0506393
aF121.5297769
aF115.6
aI0
aI0
aI0
aa(lp280
F25.0708603
aF121.6157169
aF196.58
aI5
aI2
aI2
aa(lp281
F25.0802328
aF121.575526
aF94.03
aI3
aI2
aI2
aa(lp282
F25.0689281
aF121.6183404
aF108.24
aI3
aI2
aI2
aa(lp283
F25.085743
aF121.553669
aF98.72
aI1
aI2
aI1
aa(lp284
F25.0611317
aF121.5257123
aF40.38
aI1
aI1
aI1
aa(lp285
F25.0428139
aF121.500707
aF216.44
aI3
aI2
aI2
aa(lp286
F25.0401934
aF121.500685
aF64.35
aI2
aI1
aI1
aa(lp287
F24.9855558
aF121.5656
aF165.29000000000002
aI2
aI2
aI2
aa(lp288
F24.994774
aF121.545217
aF104.61
aI3
aI2
aI1
aa(lp289
F24.9945819
aF121.542903
aF105.95
aI3
aI1
aI1
aa(lp290
F24.989988
aF121.560938
aF87.91
aI2
aI2
aI1
aa(lp291
F24.9945469
aF121.538128
aF114.19
aI3
aI2
aI1
aa(lp292
F25.0404607
aF121.5530865
aF124.7
aI3
aI2
aI2
aa(lp293
F25.033382
aF121.525459
aF78.55000000000001
aI1
aI2
aI1
aa(lp294
F24.999668
aF121.5443584
aF94.34
aI2
aI2
aI1
aa(lp295
F24.9833146
aF121.5801431
aF62.690000000000005
aI1
aI1
aI1
aa(lp296
F24.9826463
aF121.5803852
aF77.61
aI2
aI2
aI1
aa(lp297
F24.9927645
aF121.5444329
aF45.39
aI1
aI1
aI1
aa(lp298
F24.9989848
aF121.5459713
aF380.99
aI4
aI2
aI3
aa(lp299
F25.0290571
aF121.4999105
aF77.54
aI2
aI1
aI1
aa(lp300
F25.0702224
aF121.5139998
aF62.03
aI1
aI1
aI1
aa(lp301
F25.0659078
aF121.5896509
aF82.73
aI3
aI2
aI1
aa(lp302
F25.0667363
aF121.528834
aF94.46
aI3
aI2
aI2
aa(lp303
F25.0535417
aF121.5237696
aF87.71
aI2
aI1
aI1
aa(lp304
F25.069435
aF121.533849
aF122.17999999999999
aI3
aI2
aI2
aa(lp305
F25.0792751
aF121.5852717
aF131.95
aI3
aI2
aI2
aa(lp306
F25.0584226
aF121.5209369
aF60.57
aI0
aI0
aI0
aa(lp307
F25.0482277
aF121.5890398
aF61.48
aI3
aI1
aI1
aa(lp308
F25.059105
aF121.562165
aF124.99
aI3
aI2
aI2
aa(lp309
F25.0223056
aF121.5550507
aF107.59
aI3
aI2
aI2
aa(lp310
F25.043397
aF121.592869
aF215.77
aI0
aI0
aI0
aa(lp311
F25.043397
aF121.592869
aF214.14
aI0
aI0
aI0
aa(lp312
F25.081418
aF121.520145
aF125.07000000000001
aI2
aI2
aI1
aa(lp313
F25.1417971
aF121.5010159
aF134.84
aI3
aI2
aI2
aa(lp314
F25.120858
aF121.5040666
aF118.05
aI3
aI2
aI2
aa(lp315
F25.1415559
aF121.503462
aF223.76999999999998
aI3
aI2
aI2
aa(lp316
F25.1188443
aF121.5224225
aF180.03
aI3
aI2
aI2
aa(lp317
F25.1339712
aF121.5034327
aF118.97
aI2
aI2
aI1
aa(lp318
F25.1185814
aF121.5295361
aF194.54
aI3
aI2
aI2
aa(lp319
F25.1185607
aF121.5064859
aF101.39
aI0
aI0
aI0
aa(lp320
F25.1185607
aF121.5064859
aF101.39
aI0
aI0
aI0
aa(lp321
F25.1185607
aF121.5064859
aF93.49
aI0
aI0
aI0
aa(lp322
F25.1185607
aF121.5064859
aF81.62
aI0
aI0
aI0
aa(lp323
F25.1185607
aF121.5064859
aF94.9
aI0
aI0
aI0
aa(lp324
F25.0916128
aF121.5081104
aF91.38
aI3
aI2
aI1
aa(lp325
F25.1366724
aF121.5124199
aF62.8
aI3
aI1
aI1
aa(lp326
F25.0441018
aF121.5475349
aF88.48
aI3
aI1
aI1
aa(lp327
F25.0249606
aF121.5481657
aF146.35
aI2
aI2
aI1
aa(lp328
F25.0215885
aF121.5512189
aF277.86
aI0
aI0
aI0
aa(lp329
F24.98868
aF121.564397
aF115.74
aI2
aI2
aI2
aa(lp330
F25.072895
aF121.609941
aF81.05
aI3
aI2
aI1
aa(lp331
F25.0642676
aF121.5352019
aF115.72
aI3
aI2
aI2
aa(lp332
F25.0271331
aF121.5041379
aF160.76
aI3
aI2
aI2
aa(lp333
F25.029205
aF121.564356
aF136.67000000000002
aI4
aI2
aI2
aa(lp334
F25.0567828
aF121.6010899
aF69.53
aI3
aI2
aI1
aa(lp335
F25.0586225
aF121.5156951
aF165.6
aI2
aI2
aI2
aa(lp336
F25.0251556
aF121.4998347
aF64.43
aI3
aI2
aI2
aa(lp337
F25.0259143
aF121.4915565
aF76.18
aI1
aI1
aI1
aa(lp338
F25.066212
aF121.5147672
aF45.08
aI1
aI1
aI1
aa(lp339
F24.9856839
aF121.557355
aF111.25
aI3
aI2
aI2
aa(lp340
F25.0294459
aF121.542885
aF128.57999999999998
aI3
aI2
aI2
aa(lp341
F25.1159762
aF121.5098757
aF94.42
aI0
aI0
aI0
aa(lp342
F25.0994369
aF121.5263156
aF80.51
aI2
aI1
aI2
aa(lp343
F25.13282
aF121.473815
aF102.62
aI2
aI1
aI1
aa(lp344
F25.1314323
aF121.5287482
aF186.72
aI4
aI2
aI2
aa(lp345
F25.1012012
aF121.521806
aF70.88
aI2
aI1
aI1
aa(lp346
F25.140505
aF121.506215
aF85.37
aI3
aI2
aI2
aa(lp347
F25.1251025
aF121.5331661
aF31.48
aI3
aI2
aI2
aa(lp348
F25.1464821
aF121.4945232
aF90.86
aI3
aI2
aI1
aa(lp349
F25.0812539
aF121.512657
aF140.25
aI2
aI2
aI1
aa(lp350
F25.0455853
aF121.5493041
aF766.46
aI0
aI0
aI0
aa(lp351
F25.0491976
aF121.5748137
aF354.86
aI4
aI2
aI3
aa(lp352
F25.023048
aF121.561068
aF73.65
aI2
aI1
aI1
aa(lp353
F25.0364619
aF121.580683
aF98.51
aI4
aI1
aI1
aa(lp354
F25.061442
aF121.5630126
aF107.37
aI4
aI2
aI2
aa(lp355
F25.0676789
aF121.542224
aF81.62
aI2
aI1
aI1
aa(lp356
F25.0583369
aF121.5952236
aF200.64000000000001
aI4
aI2
aI2
aa(lp357
F25.0460539
aF121.578443
aF72.9
aI3
aI2
aI2
aa(lp358
F25.0549843
aF121.5674205
aF180.95999999999998
aI4
aI2
aI4
aa(lp359
F25.0635339
aF121.520902
aF153.66
aI3
aI2
aI2
aa(lp360
F25.0736205
aF121.6029568
aF259.34000000000003
aI4
aI1
aI2
aa(lp361
F25.0581353
aF121.5296493
aF46.64
aI1
aI1
aI1
aa(lp362
F25.0492864
aF121.5218992
aF33.870000000000005
aI0
aI1
aI1
aa(lp363
F25.0789486
aF121.5975356
aF93.15
aI3
aI2
aI1
aa(lp364
F25.067588
aF121.5305546
aF286.66999999999996
aI3
aI2
aI2
aa(lp365
F25.049411
aF121.527082
aF25.869999999999997
aI1
aI1
aI1
aa(lp366
F25.0452812
aF121.5023915
aF36.21
aI1
aI1
aI1
aa(lp367
F25.0071108
aF121.5368193
aF166.31
aI3
aI2
aI2
aa(lp368
F24.9869975
aF121.5547998
aF77.08
aI2
aI1
aI2
aa(lp369
F25.0090019
aF121.5598813
aF177.61
aI2
aI2
aI2
aa(lp370
F24.9993571
aF121.5463699
aF52.14
aI1
aI1
aI1
aa(lp371
F24.9908398
aF121.5635169
aF87.45
aI2
aI2
aI1
aa(lp372
F24.9927645
aF121.5444329
aF60.010000000000005
aI1
aI1
aI1
aa(lp373
F25.1128081
aF121.536688
aF93.24
aI3
aI2
aI1
aa(lp374
F25.036449
aF121.54928
aF241.38
aI5
aI2
aI2
aa.